; Function Attrs: nounwind sspstrong uwtable
define dso_local void @fw_cfg_modify_string(ptr noundef readonly captures(none) %0, i16 noundef zeroext %1, ptr noundef %2) local_unnamed_addr #2 {
  %4 = tail call i64 @strlen(ptr noundef nonnull dereferenceable(1) %2) #20
  %5 = add i64 %4, 1
  %6 = trunc i64 %5 to i32
  %7 = tail call ptr @g_memdup(ptr noundef nonnull %2, i32 noundef %6) #21
  %8 = and i16 %1, 16383
  %9 = zext nneg i16 %8 to i32
  %10 = getelementptr i8, ptr %0, i64 808
  %.val.i = load i16, ptr %10, align 8
  %11 = zext i16 %.val.i to i32
  %12 = add nuw nsw i32 %11, 32
  %13 = icmp samesign ugt i32 %12, %9
  %14 = icmp ult i64 %5, 4294967295
  %or.cond.i = and i1 %14, %13
  br i1 %or.cond.i, label %fw_cfg_modify_bytes_read.exit, label %15

15:                                               ; preds = %3
  tail call void @__assert_fail(ptr noundef nonnull @.str.46, ptr noundef nonnull @.str.1, i32 noundef 726, ptr noundef nonnull @__PRETTY_FUNCTION__.fw_cfg_modify_bytes_read) #19
  unreachable

fw_cfg_modify_bytes_read.exit:                    ; preds = %3
  %.lobit.i = lshr i16 %1, 15
  %16 = getelementptr inbounds nuw i8, ptr %0, i64 816
  %17 = zext nneg i16 %.lobit.i to i64
  %18 = getelementptr inbounds nuw [2 x ptr], ptr %16, i64 0, i64 %17
  %19 = load ptr, ptr %18, align 8
  %20 = zext nneg i16 %8 to i64
  %21 = getelementptr inbounds nuw %struct.FWCfgEntry, ptr %19, i64 %20, i32 2
  %22 = load ptr, ptr %21, align 8
  store ptr %7, ptr %21, align 8
  %23 = load ptr, ptr %18, align 8
  %24 = getelementptr inbounds nuw %struct.FWCfgEntry, ptr %23, i64 %20
  store i32 %6, ptr %24, align 8
  %25 = load ptr, ptr %18, align 8
  %26 = getelementptr inbounds nuw %struct.FWCfgEntry, ptr %25, i64 %20, i32 1
  store i8 0, ptr %26, align 4
  tail call void @g_free(ptr noundef %22) #18
  ret void
}